; Function Attrs: nounwind uwtable
define internal void @vp3_decode_flush(ptr noundef readonly captures(none) %0) #0 {
  %2 = getelementptr inbounds nuw i8, ptr %0, i64 32
  %3 = load ptr, ptr %2, align 8, !tbaa !4
  %4 = getelementptr inbounds nuw i8, ptr %3, i64 40
  tail call void @ff_progress_frame_unref(ptr noundef nonnull %4) #9
  %5 = getelementptr inbounds nuw i8, ptr %3, i64 56
  tail call void @ff_progress_frame_unref(ptr noundef nonnull %5) #9
  %6 = getelementptr inbounds nuw i8, ptr %3, i64 72
  tail call void @ff_progress_frame_unref(ptr noundef nonnull %6) #9
  ret void
}